	.file	"BoostHacks.c"
	.text
	.text
.Ltext0:
	.cfi_sections	.debug_frame
	.global	_WGDCHooked
	.section	RomHole_Functions,"aw",@progbits
	.align 2
	.type	_WGDCHooked, @object
	.size	_WGDCHooked, 4
_WGDCHooked:
	.long	78572
	.section	RomHole_Code,"ax",@progbits
	.align 2
	.global	_WGDCHack
	.type	_WGDCHack, @function
_WGDCHack:
.LFB0:
	.file 1 "C:\\Users\\Simon\\Desktop\\romraider\\merpmod\\MerpMod\\MerpMod\\BoostHacks.c"
	.loc 1 23 0
	.cfi_startproc
	mov.l	r14,@-r15
.LCFI0:
	.cfi_def_cfa_offset 4
	.cfi_offset 14, -4
	sts.l	pr,@-r15
.LCFI1:
	.cfi_def_cfa_offset 8
	.cfi_offset 17, -8
	mov	r15,r14
.LCFI2:
	.cfi_def_cfa_register 14
	.loc 1 25 0
	mov.l	.L2,r1
	jsr	@r1
	nop
	.loc 1 26 0
	mov.l	.L3,r1
	mov.l	@r1,r1
	jsr	@r1
	nop
	.loc 1 67 0
	mov	r14,r15
	lds.l   @r15+,pr
	mov.l   @r15+,r14
	rts	
	nop
.L4:
	.align 2
.L2:
	.long	_EcuHacksMain
.L3:
	.long	_WGDCHooked
	.cfi_endproc
.LFE0:
	.size	_WGDCHack, .-_WGDCHack
	.text
.Letext0: