	.file	"CelFlash.c"
	.text
	.text
.Ltext0:
	.cfi_sections	.debug_frame
	.global	_CelTrigger
	.section	RomHole_Functions,"aw",@progbits
	.align 2
	.type	_CelTrigger, @object
	.size	_CelTrigger, 4
_CelTrigger:
	.long	593064
	.section	RomHole_Code,"ax",@progbits
	.align 2
	.global	_CelFlashStart
	.type	_CelFlashStart, @function
_CelFlashStart:
.LFB0:
	.file 1 "C:\\Users\\Simon\\Desktop\\test2\\Merpmod\\MerpMod\\CelFlash.c"
	.loc 1 37 0
	.cfi_startproc
	mov.l	r14,@-r15
.LCFI0:
	.cfi_def_cfa_offset 4
	.cfi_offset 14, -4
	add	#-16,r15
.LCFI1:
	.cfi_def_cfa_offset 20
	mov	r15,r14
.LCFI2:
	.cfi_def_cfa_register 14
	mov	r6,r3
	mov	r7,r2
	mov	r14,r1
	add	#12,r1
	mov.b	r4,@r1
	mov	r14,r1
	add	#8,r1
	mov.b	r5,@r1
	mov	r14,r1
	add	#4,r1
	mov.b	r3,@r1
	mov	r14,r1
	mov.b	r2,@r1
	.loc 1 39 0
	mov.w	.L12,r1
	add	#29,r1
	mov.b	@r1,r1
	extu.b	r1,r1
	tst	r1,r1
	bt.s	.L2
	nop
	.loc 1 39 0 is_stmt 0 discriminator 1
	mov	r14,r1
	mov.b	@r1,r1
	extu.b	r1,r2
	mov	#1,r1
	cmp/eq	r1,r2
	bf.s	.L1
	nop
.L2:
	.loc 1 42 0 is_stmt 1
	mov.w	.L12,r1
	add	#30,r1
	mov	r14,r2
	add	#4,r2
	mov.b	@r2,r2
	mov.b	r2,@r1
	.loc 1 43 0
	mov.w	.L12,r1
	add	#24,r1
	mov	r14,r2
	add	#8,r2
	mov.b	@r2,r2
	mov.b	r2,@r1
	.loc 1 44 0
	mov.w	.L12,r1
	add	#25,r1
	mov	r14,r2
	add	#8,r2
	mov.b	@r2,r2
	mov.b	r2,@r1
	.loc 1 45 0
	mov	r14,r1
	add	#12,r1
	mov.b	@r1,r1
	extu.b	r1,r1
	tst	r1,r1
	bt.s	.L1
	nop
	.loc 1 47 0
	mov.w	.L12,r1
	mov	r14,r2
	add	#12,r2
	mov.b	@r2,r2
	add	r2,r2
	extu.b	r2,r2
	add	#-1,r2
	extu.b	r2,r2
	add	#26,r1
	mov.b	r2,@r1
	.loc 1 48 0
	mov.w	.L12,r1
	mov	r14,r2
	add	#12,r2
	mov.b	@r2,r2
	add	r2,r2
	extu.b	r2,r2
	add	#-1,r2
	extu.b	r2,r2
	add	#27,r1
	mov.b	r2,@r1
	.loc 1 49 0
	mov.w	.L12,r1
	mov.w	.L11,r2
	mov.b	@r2,r2
	mov	#1,r3
	xor	r3,r2
	exts.b	r2,r2
	extu.b	r2,r2
	add	#20,r1
	mov.b	r2,@r1
	.loc 1 50 0
	mov.w	.L12,r1
	add	#29,r1
	mov	#1,r2
	mov.b	r2,@r1
.L1:
	.loc 1 53 0
	add	#16,r14
	mov	r14,r15
	mov.l   @r15+,r14
	rts	
	nop
	.align 1
.L12:
	.short	-20496
.L11:
	.short	-23534
	.cfi_endproc
.LFE0:
	.size	_CelFlashStart, .-_CelFlashStart
	.align 2
	.global	_CelFlash
	.type	_CelFlash, @function
_CelFlash:
.LFB1:
	.loc 1 56 0
	.cfi_startproc
	mov.l	r14,@-r15
.LCFI3:
	.cfi_def_cfa_offset 4
	.cfi_offset 14, -4
	sts.l	pr,@-r15
.LCFI4:
	.cfi_def_cfa_offset 8
	.cfi_offset 17, -8
	mov	r15,r14
.LCFI5:
	.cfi_def_cfa_register 14
	.loc 1 58 0
	mov.w	.L41,r1
	add	#27,r1
	mov.b	@r1,r1
	extu.b	r1,r1
	tst	r1,r1
	bt.s	.L14
	nop
	.loc 1 60 0
	mov.w	.L41,r1
	add	#25,r1
	mov.b	@r1,r1
	extu.b	r1,r1
	tst	r1,r1
	bf.s	.L15
	nop
	.loc 1 64 0
	mov.w	.L41,r1
	mov.w	.L41,r2
	add	#24,r2
	mov.b	@r2,r2
	extu.b	r2,r2
	add	#25,r1
	mov.b	r2,@r1
	.loc 1 65 0
	mov.w	.L41,r1
	mov.w	.L41,r2
	add	#20,r2
	mov.b	@r2,r2
	extu.b	r2,r2
	mov	#1,r3
	xor	r3,r2
	extu.b	r2,r2
	add	#20,r1
	mov.b	r2,@r1
	.loc 1 66 0
	mov.w	.L41,r1
	mov	r1,r2
	add	#27,r2
	mov.b	@r2,r2
	extu.b	r2,r2
	add	#-1,r2
	extu.b	r2,r2
	add	#27,r1
	mov.b	r2,@r1
	bra	.L16
	nop
	.align 1
.L15:
	.loc 1 70 0
	mov.w	.L41,r1
	mov	r1,r2
	add	#25,r2
	mov.b	@r2,r2
	extu.b	r2,r2
	add	#-1,r2
	extu.b	r2,r2
	add	#25,r1
	mov.b	r2,@r1
	bra	.L16
	nop
	.align 1
.L14:
	.loc 1 73 0
	mov.w	.L41,r1
	add	#30,r1
	mov.b	@r1,r1
	extu.b	r1,r1
	tst	r1,r1
	bt.s	.L17
	nop
	.loc 1 75 0
	mov.w	.L41,r1
	mov	r1,r2
	add	#30,r2
	mov.b	@r2,r2
	extu.b	r2,r2
	add	#-1,r2
	extu.b	r2,r2
	add	#30,r1
	mov.b	r2,@r1
	bra	.L16
	nop
	.align 1
.L17:
	.loc 1 81 0
	mov.w	.L41,r1
	mov.w	.L40,r2
	mov.b	@r2,r2
	extu.b	r2,r2
	add	#20,r1
	mov.b	r2,@r1
	.loc 1 82 0
	mov.w	.L41,r1
	add	#29,r1
	mov	#0,r2
	mov.b	r2,@r1
.L16:
	.loc 1 108 0
	mov.l	.L42,r1
	fmov.s	@r1,fr1
	mov.l	.L43,r1
	fmov.s	@r1,fr2
	fcmp/gt	fr1,fr2
	bt	.L63
	fcmp/eq	fr1,fr2
	bf.s	.L18
	nop
.L63:
.L25:
	.loc 1 108 0 is_stmt 0 discriminator 1
	mov.l	.L44,r1
	fmov.s	@r1,fr2
	mov.l	.L45,r1
	fmov.s	@r1,fr1
	fcmp/gt	fr1,fr2
	bf.s	.L18
	nop
.L26:
	.loc 1 110 0 is_stmt 1
	mov.l	.L46,r1
	mov.b	@r1,r1
	extu.b	r1,r1
	lds	r1,fpul
	fsts	fpul,fr2
	mov.l	.L47,r1
	mov.b	@r1,r1
	extu.b	r1,r1
	lds	r1,fpul
	fsts	fpul,fr1
	flds	fr2,fpul
	sts	fpul,r4
	flds	fr1,fpul
	sts	fpul,r5
	mov	#0,r6
	mov	#0,r7
	mov.l	.L48,r1
	jsr	@r1
	nop
	bra	.L21
	nop
	.align 1
.L41:
	.short	-20496
.L40:
	.short	-23534
.L49:
	.align 2
.L42:
	.long	-32976
.L43:
	.long	_FBKCHiThreshold
.L44:
	.long	-39532
.L45:
	.long	_FBKCLoadThreshold
.L46:
	.long	_FBKCHiFlashes
.L47:
	.long	_FBKCHiFlashSpeed
.L48:
	.long	_CelFlashStart
	.align 1
.L18:
	.loc 1 112 0
	mov.l	.L50,r1
	fmov.s	@r1,fr1
	mov.l	.L51,r1
	fmov.s	@r1,fr2
	fcmp/gt	fr1,fr2
	bt	.L64
	fcmp/eq	fr1,fr2
	bf.s	.L21
	nop
.L64:
.L27:
	.loc 1 112 0 is_stmt 0 discriminator 1
	mov.l	.L52,r1
	fmov.s	@r1,fr2
	mov.l	.L53,r1
	fmov.s	@r1,fr1
	fcmp/gt	fr1,fr2
	bf.s	.L21
	nop
.L28:
	.loc 1 114 0 is_stmt 1
	mov.l	.L54,r1
	mov.b	@r1,r1
	extu.b	r1,r1
	lds	r1,fpul
	fsts	fpul,fr2
	mov.l	.L55,r1
	mov.b	@r1,r1
	extu.b	r1,r1
	lds	r1,fpul
	fsts	fpul,fr1
	flds	fr2,fpul
	sts	fpul,r4
	flds	fr1,fpul
	sts	fpul,r5
	mov	#0,r6
	mov	#0,r7
	mov.l	.L56,r1
	jsr	@r1
	nop
.L21:
	.loc 1 129 0
	mov.w	.L61,r1
	add	#20,r1
	mov.b	@r1,r1
	extu.b	r1,r2
	mov.w	.L61,r1
	add	#21,r1
	mov.b	@r1,r1
	extu.b	r1,r1
	cmp/eq	r1,r2
	bt.s	.L24
	nop
	.loc 1 131 0
	mov.l	.L59,r1
	mov.l	@r1,r1
	jsr	@r1
	nop
.L24:
	.loc 1 147 0
	mov.w	.L61,r1
	mov.w	.L61,r2
	add	#20,r2
	mov.b	@r2,r2
	extu.b	r2,r2
	add	#21,r1
	mov.b	r2,@r1
	.loc 1 150 0
	mov	r14,r15
	lds.l   @r15+,pr
	mov.l   @r15+,r14
	rts	
	nop
	.align 1
.L61:
	.short	-20496
.L62:
	.align 2
.L50:
	.long	-32976
.L51:
	.long	_FBKCLoThreshold
.L52:
	.long	-39532
.L53:
	.long	_FBKCLoadThreshold
.L54:
	.long	_FBKCLoFlashes
.L55:
	.long	_FBKCLoFlashSpeed
.L56:
	.long	_CelFlashStart
.L59:
	.long	_CelTrigger
	.cfi_endproc
.LFE1:
	.size	_CelFlash, .-_CelFlash
	.text
.Letext0:
	.file 2 "C:\\Users\\Simon\\Desktop\\test2\\Merpmod\\MerpMod\\RamVariables.h"
	.file 3 "C:\\Users\\Simon\\Desktop\\test2\\Merpmod\\MerpMod\\Externs.h"