	.file	"EcuHacks.c"
	.text
	.text
.Ltext0:
	.cfi_sections	.debug_frame
	.global	_ECUHACK_EOF
	.section	RomHole_EOF,"a",@progbits
	.align 2
	.type	_ECUHACK_EOF, @object
	.size	_ECUHACK_EOF, 4
_ECUHACK_EOF:
	.long	305419896
	.section	RomHole_Code,"ax",@progbits
	.align 2
	.global	_EcuHacksMain
	.type	_EcuHacksMain, @function
_EcuHacksMain:
.LFB0:
	.file 1 "C:\\Users\\Simon\\Desktop\\romraider\\merpmod\\MerpMod\\MerpMod\\EcuHacks.c"
	.loc 1 60 0
	.cfi_startproc
	mov.l	r14,@-r15
.LCFI0:
	.cfi_def_cfa_offset 4
	.cfi_offset 14, -4
	sts.l	pr,@-r15
.LCFI1:
	.cfi_def_cfa_offset 8
	.cfi_offset 17, -8
	mov	r15,r14
.LCFI2:
	.cfi_def_cfa_register 14
	.loc 1 70 0
	mov.l	.L2,r1
	jsr	@r1
	nop
	.loc 1 72 0
	mov	r14,r15
	lds.l   @r15+,pr
	mov.l   @r15+,r14
	rts	
	nop
.L3:
	.align 2
.L2:
	.long	_CelFlash
	.cfi_endproc
.LFE0:
	.size	_EcuHacksMain, .-_EcuHacksMain
	.align 2
	.global	_EcuHacksMainRPM
	.type	_EcuHacksMainRPM, @function
_EcuHacksMainRPM:
.LFB1:
	.loc 1 75 0
	.cfi_startproc
	mov.l	r14,@-r15
.LCFI3:
	.cfi_def_cfa_offset 4
	.cfi_offset 14, -4
	mov	r15,r14
.LCFI4:
	.cfi_def_cfa_register 14
	.loc 1 83 0
	mov	r14,r15
	mov.l   @r15+,r14
	rts	
	nop
	.cfi_endproc
.LFE1:
	.size	_EcuHacksMainRPM, .-_EcuHacksMainRPM
	.text
.Letext0: