	.file	"GenericTests.c"
	.text
	.text
.Ltext0:
	.cfi_sections	.debug_frame
	.section	Misc,"ax",@progbits
	.align 1
	.global	_CallMemoryReset
	.type	_CallMemoryReset, @function
_CallMemoryReset:
.LFB0:
	.file 1 "C:\\Users\\Simon\\Desktop\\romraider\\merpmod\\MerpMod\\MerpMod\\GenericTests.c"
	.loc 1 25 0
	.cfi_startproc
	mov.l	r14,@-r15
.LCFI0:
	.cfi_def_cfa_offset 4
	.cfi_offset 14, -4
	sts.l	pr,@-r15
.LCFI1:
	.cfi_def_cfa_offset 8
	.cfi_offset 17, -8
	add	#-4,r15
.LCFI2:
	.cfi_def_cfa_offset 12
	mov	r15,r14
.LCFI3:
	.cfi_def_cfa_register 14
	.loc 1 26 0
	mov	r14,r1
	add	#-60,r1
	mov.l	.L2,r2
	mov.l	r2,@(60,r1)
	.loc 1 27 0
	mov	r14,r1
	add	#-60,r1
	mov.l	@(60,r1),r1
	jsr	@r1
	nop
	.loc 1 29 0
	add	#4,r14
	mov	r14,r15
	lds.l   @r15+,pr
	mov.l   @r15+,r14
	rts	
	nop
.L3:
	.align 2
.L2:
	.long	65728
	.cfi_endproc
.LFE0:
	.size	_CallMemoryReset, .-_CallMemoryReset
	.align 1
	.global	_GenericTests
	.type	_GenericTests, @function
_GenericTests:
.LFB1:
	.loc 1 35 0
	.cfi_startproc
	mov.l	r14,@-r15
.LCFI4:
	.cfi_def_cfa_offset 4
	.cfi_offset 14, -4
	sts.l	pr,@-r15
.LCFI5:
	.cfi_def_cfa_offset 8
	.cfi_offset 17, -8
	mov	r15,r14
.LCFI6:
	.cfi_def_cfa_register 14
	.loc 1 36 0
	mov.l	.L5,r1
	jsr	@r1
	nop
	.loc 1 43 0
	mov.l	.L6,r1
	jsr	@r1
	nop
	.loc 1 66 0
	mov.l	.L7,r1
	jsr	@r1
	nop
	.loc 1 67 0
	mov	r14,r15
	lds.l   @r15+,pr
	mov.l   @r15+,r14
	rts	
	nop
.L8:
	.align 2
.L5:
	.long	_ResetRamVariables
.L6:
	.long	_CelFlashUnitTests
.L7:
	.long	_BrickBuster
	.cfi_endproc
.LFE1:
	.size	_GenericTests, .-_GenericTests
	.align 1
	.global	_BrickBuster
	.type	_BrickBuster, @function
_BrickBuster:
.LFB2:
	.loc 1 71 0
	.cfi_startproc
	mov.l	r14,@-r15
.LCFI7:
	.cfi_def_cfa_offset 4
	.cfi_offset 14, -4
	sts.l	pr,@-r15
.LCFI8:
	.cfi_def_cfa_offset 8
	.cfi_offset 17, -8
	mov	r15,r14
.LCFI9:
	.cfi_def_cfa_register 14
	.loc 1 86 0
	mov.l	.L10,r1
	jsr	@r1
	nop
	.loc 1 98 0
	mov.l	.L11,r1
	jsr	@r1
	nop
	.loc 1 99 0
	mov	r14,r15
	lds.l   @r15+,pr
	mov.l   @r15+,r14
	rts	
	nop
.L12:
	.align 2
.L10:
	.long	_WGDCHack
.L11:
	.long	_CallMemoryReset
	.cfi_endproc
.LFE2:
	.size	_BrickBuster, .-_BrickBuster
	.align 1
	.global	_SetValues
	.type	_SetValues, @function
_SetValues:
.LFB3:
	.loc 1 103 0
	.cfi_startproc
	mov.l	r14,@-r15
.LCFI10:
	.cfi_def_cfa_offset 4
	.cfi_offset 14, -4
	mov	r15,r14
.LCFI11:
	.cfi_def_cfa_register 14
	.loc 1 106 0
! 106 "C:\Users\Simon\Desktop\romraider\merpmod\MerpMod\MerpMod\GenericTests.c" 1
	nop
! 0 "" 2
	.loc 1 107 0
! 107 "C:\Users\Simon\Desktop\romraider\merpmod\MerpMod\MerpMod\GenericTests.c" 1
	nop
! 0 "" 2
	.loc 1 140 0
	mov.l	.L14,r1
	mova	.L15,r0
	fmov.s	@r0,fr1
	fmov.s	fr1,@r1
	.loc 1 141 0
	mov.l	.L16,r1
	mova	.L17,r0
	fmov.s	@r0,fr1
	fmov.s	fr1,@r1
	.loc 1 142 0
	mov.l	.L18,r1
	mov.w	.L19,r2
	mov.w	r2,@r1
	.loc 1 143 0
	mov	r14,r15
	mov.l   @r15+,r14
	rts	
	nop
	.align 1
.L19:
	.short	19660
.L20:
	.align 2
.L14:
	.long	-40020
.L15:
	.long	1132885366
.L16:
	.long	-38348
.L17:
	.long	1143930880
.L18:
	.long	-49086
	.cfi_endproc
.LFE3:
	.size	_SetValues, .-_SetValues
	.text
.Letext0: