	.file	"Initializer.c"
	.text
	.text
.Ltext0:
	.cfi_sections	.debug_frame
	.global	_MemoryResetHooked
	.section	RomHole_Functions,"aw",@progbits
	.align 2
	.type	_MemoryResetHooked, @object
	.size	_MemoryResetHooked, 4
_MemoryResetHooked:
	.long	65728
	.section	RomHole_Code,"ax",@progbits
	.align 2
	.global	_Initializer
	.type	_Initializer, @function
_Initializer:
.LFB0:
	.file 1 "C:\\Users\\Simon\\Desktop\\romraider\\merpmod\\MerpMod\\MerpMod\\Initializer.c"
	.loc 1 20 0
	.cfi_startproc
	mov.l	r14,@-r15
.LCFI0:
	.cfi_def_cfa_offset 4
	.cfi_offset 14, -4
	sts.l	pr,@-r15
.LCFI1:
	.cfi_def_cfa_offset 8
	.cfi_offset 17, -8
	mov	r15,r14
.LCFI2:
	.cfi_def_cfa_register 14
	.loc 1 21 0
	mov.l	.L2,r1
	mov.l	@r1,r1
	jsr	@r1
	nop
	.loc 1 25 0
	mov.l	.L3,r1
	jsr	@r1
	nop
	.loc 1 28 0
	mov	r14,r15
	lds.l   @r15+,pr
	mov.l   @r15+,r14
	rts	
	nop
.L4:
	.align 2
.L2:
	.long	_MemoryResetHooked
.L3:
	.long	_ResetRamVariables
	.cfi_endproc
.LFE0:
	.size	_Initializer, .-_Initializer
	.align 2
	.global	_ResetRamVariables
	.type	_ResetRamVariables, @function
_ResetRamVariables:
.LFB1:
	.loc 1 31 0
	.cfi_startproc
	mov.l	r14,@-r15
.LCFI3:
	.cfi_def_cfa_offset 4
	.cfi_offset 14, -4
	sts.l	pr,@-r15
.LCFI4:
	.cfi_def_cfa_offset 8
	.cfi_offset 17, -8
	mov	r15,r14
.LCFI5:
	.cfi_def_cfa_register 14
	.loc 1 32 0
	mov.w	.L6,r2
	mov.w	.L7,r1
	mov	r2,r4
	mov	r1,r5
	mov.l	.L8,r1
	jsr	@r1
	nop
	.loc 1 33 0
	mov.l	.L9,r1
	jsr	@r1
	nop
	.loc 1 34 0
	mov	r14,r15
	lds.l   @r15+,pr
	mov.l   @r15+,r14
	rts	
	nop
	.align 1
.L6:
	.short	-20496
.L7:
	.short	-20460
.L10:
	.align 2
.L8:
	.long	_ClearRamVariables
.L9:
	.long	_PopulateRamVariables
	.cfi_endproc
.LFE1:
	.size	_ResetRamVariables, .-_ResetRamVariables
	.align 2
	.global	_InitRamVariables
	.type	_InitRamVariables, @function
_InitRamVariables:
.LFB2:
	.loc 1 37 0
	.cfi_startproc
	mov.l	r14,@-r15
.LCFI6:
	.cfi_def_cfa_offset 4
	.cfi_offset 14, -4
	sts.l	pr,@-r15
.LCFI7:
	.cfi_def_cfa_offset 8
	.cfi_offset 17, -8
	mov	r15,r14
.LCFI8:
	.cfi_def_cfa_register 14
	.loc 1 38 0
	mov.w	.L15,r1
	mov.b	@r1,r1
	extu.b	r1,r2
	mov.w	.L14,r1
	cmp/eq	r1,r2
	bt.s	.L11
	nop
	.loc 1 40 0
	mov.w	.L15,r2
	mov.w	.L16,r1
	mov	r2,r4
	mov	r1,r5
	mov.l	.L17,r1
	jsr	@r1
	nop
	.loc 1 41 0
	mov.l	.L18,r1
	jsr	@r1
	nop
.L11:
	.loc 1 43 0
	mov	r14,r15
	lds.l   @r15+,pr
	mov.l   @r15+,r14
	rts	
	nop
	.align 1
.L15:
	.short	-20496
.L14:
	.short	180
.L16:
	.short	-20460
.L19:
	.align 2
.L17:
	.long	_ClearRamVariables
.L18:
	.long	_PopulateRamVariables
	.cfi_endproc
.LFE2:
	.size	_InitRamVariables, .-_InitRamVariables
	.align 2
	.global	_ClearRamVariables
	.type	_ClearRamVariables, @function
_ClearRamVariables:
.LFB3:
	.loc 1 46 0
	.cfi_startproc
	mov.l	r14,@-r15
.LCFI9:
	.cfi_def_cfa_offset 4
	.cfi_offset 14, -4
	add	#-16,r15
.LCFI10:
	.cfi_def_cfa_offset 20
	mov	r15,r14
.LCFI11:
	.cfi_def_cfa_register 14
	mov	r14,r1
	add	#-48,r1
	mov.l	r4,@(52,r1)
	mov	r14,r1
	add	#-48,r1
	mov.l	r5,@(48,r1)
	.loc 1 47 0
	mov	r14,r1
	add	#-48,r1
	mov	r14,r2
	add	#-48,r2
	mov.l	@(48,r2),r2
	mov.l	r2,@(56,r1)
	.loc 1 48 0
	mov	r14,r1
	add	#-48,r1
	mov	r14,r2
	add	#-48,r2
	mov.l	@(52,r2),r2
	mov.l	r2,@(60,r1)
	.loc 1 49 0
	bra	.L21
	nop
	.align 1
.L22:
	.loc 1 51 0
	mov	r14,r1
	add	#-48,r1
	mov.l	@(60,r1),r1
	mov	#0,r2
	mov.l	r2,@r1
	.loc 1 52 0
	mov	r14,r1
	add	#-48,r1
	mov	r14,r2
	add	#-48,r2
	mov.l	@(60,r2),r2
	add	#4,r2
	mov.l	r2,@(60,r1)
.L21:
	.loc 1 49 0 discriminator 1
	mov	r14,r2
	add	#-48,r2
	mov	r14,r1
	add	#-48,r1
	mov.l	@(60,r2),r2
	mov.l	@(56,r1),r1
	cmp/hs       r1,r2
	bf.s	.L22
	nop
	.loc 1 54 0
	add	#16,r14
	mov	r14,r15
	mov.l   @r15+,r14
	rts	
	nop
	.cfi_endproc
.LFE3:
	.size	_ClearRamVariables, .-_ClearRamVariables
	.align 2
	.global	_PopulateRamVariables
	.type	_PopulateRamVariables, @function
_PopulateRamVariables:
.LFB4:
	.loc 1 57 0
	.cfi_startproc
	mov.l	r14,@-r15
.LCFI12:
	.cfi_def_cfa_offset 4
	.cfi_offset 14, -4
	mov	r15,r14
.LCFI13:
	.cfi_def_cfa_register 14
	.loc 1 137 0
	mov.w	.L24,r1
	mov	#-76,r2
	mov.b	r2,@r1
	.loc 1 139 0
	mov	r14,r15
	mov.l   @r15+,r14
	rts	
	nop
	.align 1
.L24:
	.short	-20496
	.cfi_endproc
.LFE4:
	.size	_PopulateRamVariables, .-_PopulateRamVariables
	.text
.Letext0:
	.file 2 "C:\\Users\\Simon\\Desktop\\romraider\\merpmod\\MerpMod\\MerpMod\\RamVariables.h"