	.file	"PullRamHooks.c"
	.text
	.text
.Ltext0:
	.cfi_sections	.debug_frame
	.section	RomHole_Code,"ax",@progbits
	.align 2
	.global	_Pull3DRamHook
	.type	_Pull3DRamHook, @function
_Pull3DRamHook:
.LFB0:
	.file 1 "C:\\Users\\Simon\\Desktop\\romraider\\merpmod\\MerpMod\\MerpMod\\PullRamHooks.c"
	.loc 1 25 0
	.cfi_startproc
	mov.l	r14,@-r15
.LCFI0:
	.cfi_def_cfa_offset 4
	.cfi_offset 14, -4
	sts.l	pr,@-r15
.LCFI1:
	.cfi_def_cfa_offset 8
	.cfi_offset 17, -8
	add	#-12,r15
.LCFI2:
	.cfi_def_cfa_offset 20
	mov	r15,r14
.LCFI3:
	.cfi_def_cfa_register 14
	mov	r14,r1
	add	#-52,r1
	mov.l	r4,@(60,r1)
	mov	r14,r1
	add	#4,r1
	fmov.s	fr4,@r1
	mov	r14,r1
	fmov.s	fr5,@r1
	.loc 1 29 0
	mov	r14,r1
	add	#-52,r1
	mov.l	@(60,r1),r2
	mov.w	.L4,r1
	cmp/hi	r1,r2
	bf.s	.L2
	nop
	.loc 1 29 0 is_stmt 0 discriminator 1
	mov	r14,r1
	add	#-52,r1
	mov.l	@(60,r1),r2
	mov.w	.L5,r1
	cmp/hi	r1,r2
	bt.s	.L2
	nop
	.loc 1 31 0 is_stmt 1
	mov	r14,r1
	add	#-52,r1
	mov.l	@(60,r1),r1
	fmov.s	@r1,fr1
	bra	.L3
	nop
	.align 1
.L2:
	.loc 1 35 0
	mov.l	.L6,r1
	mov.l	@r1,r1
	mov	r14,r2
	add	#-52,r2
	mov.l	@(60,r2),r7
	mov	r14,r3
	add	#4,r3
	mov	r14,r2
	mov	r7,r4
	fmov.s	@r3,fr4
	fmov.s	@r2,fr5
	jsr	@r1
	nop
	fmov	fr0,fr1
.L3:
	.loc 1 37 0
	fmov	fr1,fr0
	add	#12,r14
	mov	r14,r15
	lds.l   @r15+,pr
	mov.l   @r15+,r14
	rts	
	nop
	.align 1
.L4:
	.short	-20496
.L5:
	.short	-20461
.L7:
	.align 2
.L6:
	.long	_Pull3DHooked
	.cfi_endproc
.LFE0:
	.size	_Pull3DRamHook, .-_Pull3DRamHook
	.align 2
	.global	_Pull2DRamHook
	.type	_Pull2DRamHook, @function
_Pull2DRamHook:
.LFB1:
	.loc 1 40 0
	.cfi_startproc
	mov.l	r14,@-r15
.LCFI4:
	.cfi_def_cfa_offset 4
	.cfi_offset 14, -4
	sts.l	pr,@-r15
.LCFI5:
	.cfi_def_cfa_offset 8
	.cfi_offset 17, -8
	add	#-8,r15
.LCFI6:
	.cfi_def_cfa_offset 16
	mov	r15,r14
.LCFI7:
	.cfi_def_cfa_register 14
	mov	r14,r1
	add	#-56,r1
	mov.l	r4,@(60,r1)
	mov	r14,r1
	fmov.s	fr4,@r1
	.loc 1 42 0
	mov	r14,r1
	add	#-56,r1
	mov.l	@(60,r1),r2
	mov.w	.L11,r1
	cmp/hi	r1,r2
	bf.s	.L9
	nop
	.loc 1 44 0
	mov	r14,r1
	add	#-56,r1
	mov.l	@(60,r1),r1
	fmov.s	@r1,fr1
	bra	.L10
	nop
	.align 1
.L9:
	.loc 1 48 0
	mov.l	.L12,r1
	mov.l	@r1,r1
	mov	r14,r2
	add	#-56,r2
	mov.l	@(60,r2),r3
	mov	r14,r2
	mov	r3,r4
	fmov.s	@r2,fr4
	jsr	@r1
	nop
	fmov	fr0,fr1
.L10:
	.loc 1 50 0
	fmov	fr1,fr0
	add	#8,r14
	mov	r14,r15
	lds.l   @r15+,pr
	mov.l   @r15+,r14
	rts	
	nop
	.align 1
.L11:
	.short	-20496
.L13:
	.align 2
.L12:
	.long	_Pull2DHooked
	.cfi_endproc
.LFE1:
	.size	_Pull2DRamHook, .-_Pull2DRamHook
	.text
.Letext0:
	.file 2 "C:\\Users\\Simon\\Desktop\\romraider\\merpmod\\MerpMod\\MerpMod\\enums.h"
	.file 3 "C:\\Users\\Simon\\Desktop\\romraider\\merpmod\\MerpMod\\MerpMod\\RamVariables.h"
	.file 4 "C:\\Users\\Simon\\Desktop\\romraider\\merpmod\\MerpMod\\MerpMod\\Externs.h"