	.file	"SwitchChecks.c"
	.text
	.text
.Ltext0:
	.cfi_sections	.debug_frame
	.section	RomHole_Code,"ax",@progbits
	.align 2
	.global	_TestBrakeSwitch
	.type	_TestBrakeSwitch, @function
_TestBrakeSwitch:
.LFB0:
	.file 1 "C:\\Users\\Simon\\Desktop\\romraider\\merpmod\\MerpMod\\MerpMod\\SwitchChecks.c"
	.loc 1 18 0
	.cfi_startproc
	mov.l	r14,@-r15
.LCFI0:
	.cfi_def_cfa_offset 4
	.cfi_offset 14, -4
	add	#-4,r15
.LCFI1:
	.cfi_def_cfa_offset 8
	mov	r15,r14
.LCFI2:
	.cfi_def_cfa_register 14
	.loc 1 19 0
	mov.l	.L4,r1
	mov.b	@r1,r1
	extu.b	r1,r2
	mov	r14,r1
	add	#3,r1
	mov	#1,r3
	and	r3,r2
	mov.b	r2,@r1
	.loc 1 20 0
	mov	r14,r1
	add	#3,r1
	mov.b	@r1,r1
	extu.b	r1,r2
	mov	#1,r1
	cmp/eq	r1,r2
	bf.s	.L2
	nop
	.loc 1 21 0
	mov	#1,r1
	bra	.L3
	nop
	.align 1
.L2:
	.loc 1 23 0
	mov	#0,r1
.L3:
	lds	r1,fpul
	fsts	fpul,fr1
	.loc 1 24 0
	flds	fr1,fpul
	sts	fpul,r0
	add	#4,r14
	mov	r14,r15
	mov.l   @r15+,r14
	rts	
	nop
.L5:
	.align 2
.L4:
	.long	-40600
	.cfi_endproc
.LFE0:
	.size	_TestBrakeSwitch, .-_TestBrakeSwitch
	.align 2
	.global	_TestClutchSwitch
	.type	_TestClutchSwitch, @function
_TestClutchSwitch:
.LFB1:
	.loc 1 28 0
	.cfi_startproc
	mov.l	r14,@-r15
.LCFI3:
	.cfi_def_cfa_offset 4
	.cfi_offset 14, -4
	add	#-4,r15
.LCFI4:
	.cfi_def_cfa_offset 8
	mov	r15,r14
.LCFI5:
	.cfi_def_cfa_register 14
	.loc 1 29 0
	mov.l	.L9,r1
	mov.b	@r1,r1
	extu.b	r1,r2
	mov	r14,r1
	add	#3,r1
	mov	#1,r3
	and	r3,r2
	mov.b	r2,@r1
	.loc 1 30 0
	mov	r14,r1
	add	#3,r1
	mov.b	@r1,r1
	extu.b	r1,r2
	mov	#1,r1
	cmp/eq	r1,r2
	bf.s	.L7
	nop
	.loc 1 31 0
	mov	#1,r1
	bra	.L8
	nop
	.align 1
.L7:
	.loc 1 33 0
	mov	#0,r1
.L8:
	lds	r1,fpul
	fsts	fpul,fr1
	.loc 1 34 0
	flds	fr1,fpul
	sts	fpul,r0
	add	#4,r14
	mov	r14,r15
	mov.l   @r15+,r14
	rts	
	nop
.L10:
	.align 2
.L9:
	.long	-39041
	.cfi_endproc
.LFE1:
	.size	_TestClutchSwitch, .-_TestClutchSwitch
	.align 2
	.global	_TestCruiseResumeSwitch
	.type	_TestCruiseResumeSwitch, @function
_TestCruiseResumeSwitch:
.LFB2:
	.loc 1 39 0
	.cfi_startproc
	mov.l	r14,@-r15
.LCFI6:
	.cfi_def_cfa_offset 4
	.cfi_offset 14, -4
	add	#-4,r15
.LCFI7:
	.cfi_def_cfa_offset 8
	mov	r15,r14
.LCFI8:
	.cfi_def_cfa_register 14
	.loc 1 40 0
	mov.l	.L14,r1
	mov.b	@r1,r1
	extu.b	r1,r2
	mov	r14,r1
	add	#3,r1
	mov	#1,r3
	and	r3,r2
	mov.b	r2,@r1
	.loc 1 41 0
	mov	r14,r1
	add	#3,r1
	mov.b	@r1,r1
	extu.b	r1,r2
	mov	#1,r1
	cmp/eq	r1,r2
	bf.s	.L12
	nop
	.loc 1 42 0
	mov	#1,r1
	bra	.L13
	nop
	.align 1
.L12:
	.loc 1 44 0
	mov	#0,r1
.L13:
	lds	r1,fpul
	fsts	fpul,fr1
	.loc 1 45 0
	flds	fr1,fpul
	sts	fpul,r0
	add	#4,r14
	mov	r14,r15
	mov.l   @r15+,r14
	rts	
	nop
.L15:
	.align 2
.L14:
	.long	-40601
	.cfi_endproc
.LFE2:
	.size	_TestCruiseResumeSwitch, .-_TestCruiseResumeSwitch
	.align 2
	.global	_TestCruiseCoastSwitch
	.type	_TestCruiseCoastSwitch, @function
_TestCruiseCoastSwitch:
.LFB3:
	.loc 1 50 0
	.cfi_startproc
	mov.l	r14,@-r15
.LCFI9:
	.cfi_def_cfa_offset 4
	.cfi_offset 14, -4
	add	#-4,r15
.LCFI10:
	.cfi_def_cfa_offset 8
	mov	r15,r14
.LCFI11:
	.cfi_def_cfa_register 14
	.loc 1 51 0
	mov.l	.L19,r1
	mov.b	@r1,r1
	extu.b	r1,r2
	mov	r14,r1
	add	#3,r1
	mov	#1,r3
	and	r3,r2
	mov.b	r2,@r1
	.loc 1 52 0
	mov	r14,r1
	add	#3,r1
	mov.b	@r1,r1
	extu.b	r1,r2
	mov	#1,r1
	cmp/eq	r1,r2
	bf.s	.L17
	nop
	.loc 1 53 0
	mov	#1,r1
	bra	.L18
	nop
	.align 1
.L17:
	.loc 1 55 0
	mov	#0,r1
.L18:
	lds	r1,fpul
	fsts	fpul,fr1
	.loc 1 56 0
	flds	fr1,fpul
	sts	fpul,r0
	add	#4,r14
	mov	r14,r15
	mov.l   @r15+,r14
	rts	
	nop
.L20:
	.align 2
.L19:
	.long	-40602
	.cfi_endproc
.LFE3:
	.size	_TestCruiseCoastSwitch, .-_TestCruiseCoastSwitch
	.align 2
	.global	_TestCruiseControlToggles
	.type	_TestCruiseControlToggles, @function
_TestCruiseControlToggles:
.LFB4:
	.loc 1 60 0
	.cfi_startproc
	mov.l	r8,@-r15
.LCFI12:
	.cfi_def_cfa_offset 4
	.cfi_offset 8, -4
	mov.l	r14,@-r15
.LCFI13:
	.cfi_def_cfa_offset 8
	.cfi_offset 14, -8
	sts.l	pr,@-r15
.LCFI14:
	.cfi_def_cfa_offset 12
	.cfi_offset 17, -12
	add	#-8,r15
.LCFI15:
	.cfi_def_cfa_offset 20
	mov	r15,r14
.LCFI16:
	.cfi_def_cfa_register 14
	.loc 1 61 0
	mov	r14,r8
	add	#7,r8
	mov.l	.L24,r1
	jsr	@r1
	nop
	lds	r0,fpul
	fsts	fpul,fr1
	flds	fr1,fpul
	sts	fpul,r1
	mov.b	r1,@r8
	.loc 1 62 0
	mov	r14,r8
	add	#6,r8
	mov.l	.L25,r1
	jsr	@r1
	nop
	lds	r0,fpul
	fsts	fpul,fr1
	flds	fr1,fpul
	sts	fpul,r1
	mov.b	r1,@r8
	.loc 1 64 0
	mov.w	.L30,r1
	add	#3,r1
	mov.b	@r1,r1
	extu.b	r1,r1
	mov	r14,r2
	add	#7,r2
	mov.b	@r2,r2
	extu.b	r2,r2
	cmp/eq	r1,r2
	bt.s	.L22
	nop
	.loc 1 65 0
	mov.w	.L30,r1
	add	#2,r1
	mov.b	@r1,r1
	extu.b	r1,r1
	mov	r14,r2
	add	#6,r2
	mov.b	@r2,r2
	extu.b	r2,r2
	cmp/eq	r1,r2
	bt.s	.L23
	nop
	.loc 1 67 0
	mov	r14,r1
	add	#7,r1
	mov.b	@r1,r1
	extu.b	r1,r1
	tst	r1,r1
	bt.s	.L22
	nop
	.loc 1 67 0 is_stmt 0 discriminator 1
	mov	r14,r1
	add	#6,r1
	mov.b	@r1,r1
	extu.b	r1,r1
	tst	r1,r1
	bt.s	.L22
	nop
.LBB2:
	.loc 1 70 0 is_stmt 1
	mov	r14,r1
	add	#-56,r1
	mov	#0,r2
	mov.l	r2,@(56,r1)
	bra	.L22
	nop
	.align 1
.L23:
.LBE2:
	.loc 1 73 0
	mov.w	.L30,r1
	add	#3,r1
	mov.b	@r1,r1
	extu.b	r1,r1
	mov	r14,r2
	add	#7,r2
	mov.b	@r2,r2
	extu.b	r2,r2
	cmp/eq	r1,r2
.L22:
	.loc 1 97 0
	mov.w	.L30,r1
	add	#2,r1
	mov	r14,r2
	add	#6,r2
	mov.b	@r2,r2
	mov.b	r2,@r1
	.loc 1 98 0
	mov.w	.L30,r1
	add	#3,r1
	mov	r14,r2
	add	#7,r2
	mov.b	@r2,r2
	mov.b	r2,@r1
	.loc 1 99 0
	add	#8,r14
	mov	r14,r15
	lds.l   @r15+,pr
	mov.l   @r15+,r14
	mov.l   @r15+,r8
	rts	
	nop
	.align 1
.L30:
	.short	-20496
.L31:
	.align 2
.L24:
	.long	_TestCruiseResumeSwitch
.L25:
	.long	_TestCruiseCoastSwitch
	.cfi_endproc
.LFE4:
	.size	_TestCruiseControlToggles, .-_TestCruiseControlToggles
	.text
.Letext0:
	.file 2 "C:\\Users\\Simon\\Desktop\\romraider\\merpmod\\MerpMod\\MerpMod\\RamVariables.h"